ARM GAS  C:\Users\gvela\AppData\Local\Temp\ccmUKuKR.s 			page 1


   1              		.cpu cortex-m4
   2              		.arch armv7e-m
   3              		.fpu fpv4-sp-d16
   4              		.eabi_attribute 27, 1
   5              		.eabi_attribute 28, 1
   6              		.eabi_attribute 20, 1
   7              		.eabi_attribute 21, 1
   8              		.eabi_attribute 23, 3
   9              		.eabi_attribute 24, 1
  10              		.eabi_attribute 25, 1
  11              		.eabi_attribute 26, 1
  12              		.eabi_attribute 30, 1
  13              		.eabi_attribute 34, 1
  14              		.eabi_attribute 18, 4
  15              		.file	"uart.c"
  16              		.text
  17              	.Ltext0:
  18              		.cfi_sections	.debug_frame
  19              		.section	.text.__get_instance_uart,"ax",%progbits
  20              		.align	1
  21              		.syntax unified
  22              		.thumb
  23              		.thumb_func
  25              	__get_instance_uart:
  26              	.LVL0:
  27              	.LFB136:
  28              		.file 1 "Core/Src/uart.c"
   1:Core/Src/uart.c **** 
   2:Core/Src/uart.c **** 
   3:Core/Src/uart.c **** #include "main.h"
   4:Core/Src/uart.c **** #include "uart.h"
   5:Core/Src/uart.c **** 
   6:Core/Src/uart.c **** 
   7:Core/Src/uart.c **** 
   8:Core/Src/uart.c **** UART_HandleTypeDef huart4;
   9:Core/Src/uart.c **** UART_HandleTypeDef huart5;
  10:Core/Src/uart.c **** UART_HandleTypeDef huart1;
  11:Core/Src/uart.c **** 
  12:Core/Src/uart.c **** 
  13:Core/Src/uart.c **** 
  14:Core/Src/uart.c **** 
  15:Core/Src/uart.c **** 
  16:Core/Src/uart.c **** 
  17:Core/Src/uart.c **** static void MX_UART4_Init(void);
  18:Core/Src/uart.c **** static void MX_UART5_Init(void);
  19:Core/Src/uart.c **** static void MX_USART1_UART_Init(void);
  20:Core/Src/uart.c **** 
  21:Core/Src/uart.c **** 
  22:Core/Src/uart.c **** static UART_HandleTypeDef* __get_instance_uart(uart_t inst);
  23:Core/Src/uart.c **** 
  24:Core/Src/uart.c **** 
  25:Core/Src/uart.c **** 
  26:Core/Src/uart.c **** 
  27:Core/Src/uart.c **** 
  28:Core/Src/uart.c **** 
  29:Core/Src/uart.c **** 
  30:Core/Src/uart.c **** 
ARM GAS  C:\Users\gvela\AppData\Local\Temp\ccmUKuKR.s 			page 2


  31:Core/Src/uart.c **** /**
  32:Core/Src/uart.c **** * @brief UART MSP Initialization
  33:Core/Src/uart.c **** * This function configures the hardware resources used in this 
  34:Core/Src/uart.c **** * @param huart: UART handle pointer
  35:Core/Src/uart.c **** * @retval None
  36:Core/Src/uart.c **** */
  37:Core/Src/uart.c **** void HAL_UART_MspInit(UART_HandleTypeDef* huart)
  38:Core/Src/uart.c **** {
  39:Core/Src/uart.c ****   GPIO_InitTypeDef GPIO_InitStruct = {0};
  40:Core/Src/uart.c ****   if(huart->Instance==UART4)
  41:Core/Src/uart.c ****   {
  42:Core/Src/uart.c ****   /* USER CODE BEGIN UART4_MspInit 0 */
  43:Core/Src/uart.c **** 
  44:Core/Src/uart.c ****   /* USER CODE END UART4_MspInit 0 */
  45:Core/Src/uart.c ****     /* Peripheral clock enable */
  46:Core/Src/uart.c ****     __HAL_RCC_UART4_CLK_ENABLE();
  47:Core/Src/uart.c **** 
  48:Core/Src/uart.c ****     __HAL_RCC_GPIOA_CLK_ENABLE();
  49:Core/Src/uart.c ****     /**UART4 GPIO Configuration
  50:Core/Src/uart.c ****     PA0-WKUP     ------> UART4_TX
  51:Core/Src/uart.c ****     PA1     ------> UART4_RX
  52:Core/Src/uart.c ****     */
  53:Core/Src/uart.c ****     GPIO_InitStruct.Pin = GPIO_PIN_0|GPIO_PIN_1;
  54:Core/Src/uart.c ****     GPIO_InitStruct.Mode = GPIO_MODE_AF_PP;
  55:Core/Src/uart.c ****     GPIO_InitStruct.Pull = GPIO_NOPULL;
  56:Core/Src/uart.c ****     GPIO_InitStruct.Speed = GPIO_SPEED_FREQ_VERY_HIGH;
  57:Core/Src/uart.c ****     GPIO_InitStruct.Alternate = GPIO_AF8_UART4;
  58:Core/Src/uart.c ****     HAL_GPIO_Init(GPIOA, &GPIO_InitStruct);
  59:Core/Src/uart.c **** 
  60:Core/Src/uart.c ****   /* USER CODE BEGIN UART4_MspInit 1 */
  61:Core/Src/uart.c **** 
  62:Core/Src/uart.c **** 
  63:Core/Src/uart.c **** 
  64:Core/Src/uart.c ****   /* USER CODE END UART4_MspInit 1 */
  65:Core/Src/uart.c ****   }
  66:Core/Src/uart.c ****   else if(huart->Instance==UART5)
  67:Core/Src/uart.c ****   {
  68:Core/Src/uart.c ****   /* USER CODE BEGIN UART5_MspInit 0 */
  69:Core/Src/uart.c **** 
  70:Core/Src/uart.c ****   /* USER CODE END UART5_MspInit 0 */
  71:Core/Src/uart.c ****     /* Peripheral clock enable */
  72:Core/Src/uart.c ****     __HAL_RCC_UART5_CLK_ENABLE();
  73:Core/Src/uart.c **** 
  74:Core/Src/uart.c ****     __HAL_RCC_GPIOC_CLK_ENABLE();
  75:Core/Src/uart.c ****     __HAL_RCC_GPIOD_CLK_ENABLE();
  76:Core/Src/uart.c ****     /**UART5 GPIO Configuration
  77:Core/Src/uart.c ****     PC12     ------> UART5_TX
  78:Core/Src/uart.c ****     PD2     ------> UART5_RX
  79:Core/Src/uart.c ****     */
  80:Core/Src/uart.c ****     GPIO_InitStruct.Pin = GPIO_PIN_12;
  81:Core/Src/uart.c ****     GPIO_InitStruct.Mode = GPIO_MODE_AF_PP;
  82:Core/Src/uart.c ****     GPIO_InitStruct.Pull = GPIO_NOPULL;
  83:Core/Src/uart.c ****     GPIO_InitStruct.Speed = GPIO_SPEED_FREQ_VERY_HIGH;
  84:Core/Src/uart.c ****     GPIO_InitStruct.Alternate = GPIO_AF8_UART5;
  85:Core/Src/uart.c ****     HAL_GPIO_Init(GPIOC, &GPIO_InitStruct);
  86:Core/Src/uart.c **** 
  87:Core/Src/uart.c ****     GPIO_InitStruct.Pin = GPIO_PIN_2;
ARM GAS  C:\Users\gvela\AppData\Local\Temp\ccmUKuKR.s 			page 3


  88:Core/Src/uart.c ****     GPIO_InitStruct.Mode = GPIO_MODE_AF_PP;
  89:Core/Src/uart.c ****     GPIO_InitStruct.Pull = GPIO_NOPULL;
  90:Core/Src/uart.c ****     GPIO_InitStruct.Speed = GPIO_SPEED_FREQ_VERY_HIGH;
  91:Core/Src/uart.c ****     GPIO_InitStruct.Alternate = GPIO_AF8_UART5;
  92:Core/Src/uart.c ****     HAL_GPIO_Init(GPIOD, &GPIO_InitStruct);
  93:Core/Src/uart.c **** 
  94:Core/Src/uart.c ****     /* UART5 interrupt Init */
  95:Core/Src/uart.c ****     HAL_NVIC_SetPriority(UART5_IRQn, 0, 0);
  96:Core/Src/uart.c ****     HAL_NVIC_EnableIRQ(UART5_IRQn);
  97:Core/Src/uart.c ****   /* USER CODE BEGIN UART5_MspInit 1 */
  98:Core/Src/uart.c **** 
  99:Core/Src/uart.c ****   /* USER CODE END UART5_MspInit 1 */
 100:Core/Src/uart.c ****   }
 101:Core/Src/uart.c ****   else if(huart->Instance==USART1)
 102:Core/Src/uart.c ****   {
 103:Core/Src/uart.c ****   /* USER CODE BEGIN USART1_MspInit 0 */
 104:Core/Src/uart.c **** 
 105:Core/Src/uart.c ****   /* USER CODE END USART1_MspInit 0 */
 106:Core/Src/uart.c ****     /* Peripheral clock enable */
 107:Core/Src/uart.c ****     __HAL_RCC_USART1_CLK_ENABLE();
 108:Core/Src/uart.c **** 
 109:Core/Src/uart.c ****     __HAL_RCC_GPIOA_CLK_ENABLE();
 110:Core/Src/uart.c ****     /**USART1 GPIO Configuration
 111:Core/Src/uart.c ****     PA9     ------> USART1_TX
 112:Core/Src/uart.c ****     PA10     ------> USART1_RX
 113:Core/Src/uart.c ****     */
 114:Core/Src/uart.c ****     GPIO_InitStruct.Pin = GPIO_PIN_9|GPIO_PIN_10;
 115:Core/Src/uart.c ****     GPIO_InitStruct.Mode = GPIO_MODE_AF_PP;
 116:Core/Src/uart.c ****     GPIO_InitStruct.Pull = GPIO_NOPULL;
 117:Core/Src/uart.c ****     GPIO_InitStruct.Speed = GPIO_SPEED_FREQ_VERY_HIGH;
 118:Core/Src/uart.c ****     GPIO_InitStruct.Alternate = GPIO_AF7_USART1;
 119:Core/Src/uart.c ****     HAL_GPIO_Init(GPIOA, &GPIO_InitStruct);
 120:Core/Src/uart.c **** 
 121:Core/Src/uart.c ****   /* USER CODE BEGIN USART1_MspInit 1 */
 122:Core/Src/uart.c **** 
 123:Core/Src/uart.c ****   /* USER CODE END USART1_MspInit 1 */
 124:Core/Src/uart.c ****   }
 125:Core/Src/uart.c **** 
 126:Core/Src/uart.c **** }
 127:Core/Src/uart.c **** 
 128:Core/Src/uart.c **** 
 129:Core/Src/uart.c **** 
 130:Core/Src/uart.c **** /**
 131:Core/Src/uart.c **** * @brief UART MSP De-Initialization
 132:Core/Src/uart.c **** * This function freeze the hardware resources used in this exam
 133:Core/Src/uart.c **** * @param huart: UART handle pointer
 134:Core/Src/uart.c **** * @retval None
 135:Core/Src/uart.c **** */
 136:Core/Src/uart.c **** void HAL_UART_MspDeInit(UART_HandleTypeDef* huart)
 137:Core/Src/uart.c **** {
 138:Core/Src/uart.c ****   if(huart->Instance==UART4)
 139:Core/Src/uart.c ****   {
 140:Core/Src/uart.c ****   /* USER CODE BEGIN UART4_MspDeInit 0 */
 141:Core/Src/uart.c **** 
 142:Core/Src/uart.c ****   /* USER CODE END UART4_MspDeInit 0 */
 143:Core/Src/uart.c ****     /* Peripheral clock disable */
 144:Core/Src/uart.c ****     __HAL_RCC_UART4_CLK_DISABLE();
ARM GAS  C:\Users\gvela\AppData\Local\Temp\ccmUKuKR.s 			page 4


 145:Core/Src/uart.c **** 
 146:Core/Src/uart.c ****     /**UART4 GPIO Configuration
 147:Core/Src/uart.c ****     PA0-WKUP     ------> UART4_TX
 148:Core/Src/uart.c ****     PA1     ------> UART4_RX
 149:Core/Src/uart.c ****     */
 150:Core/Src/uart.c ****     HAL_GPIO_DeInit(GPIOA, GPIO_PIN_0|GPIO_PIN_1);
 151:Core/Src/uart.c **** 
 152:Core/Src/uart.c ****   /* USER CODE BEGIN UART4_MspDeInit 1 */
 153:Core/Src/uart.c **** 
 154:Core/Src/uart.c ****   /* USER CODE END UART4_MspDeInit 1 */
 155:Core/Src/uart.c ****   }
 156:Core/Src/uart.c ****   else if(huart->Instance==UART5)
 157:Core/Src/uart.c ****   {
 158:Core/Src/uart.c ****   /* USER CODE BEGIN UART5_MspDeInit 0 */
 159:Core/Src/uart.c **** 
 160:Core/Src/uart.c ****   /* USER CODE END UART5_MspDeInit 0 */
 161:Core/Src/uart.c ****     /* Peripheral clock disable */
 162:Core/Src/uart.c ****     __HAL_RCC_UART5_CLK_DISABLE();
 163:Core/Src/uart.c **** 
 164:Core/Src/uart.c ****     /**UART5 GPIO Configuration
 165:Core/Src/uart.c ****     PC12     ------> UART5_TX
 166:Core/Src/uart.c ****     PD2     ------> UART5_RX
 167:Core/Src/uart.c ****     */
 168:Core/Src/uart.c ****     HAL_GPIO_DeInit(GPIOC, GPIO_PIN_12);
 169:Core/Src/uart.c **** 
 170:Core/Src/uart.c ****     HAL_GPIO_DeInit(GPIOD, GPIO_PIN_2);
 171:Core/Src/uart.c **** 
 172:Core/Src/uart.c ****     /* UART5 interrupt DeInit */
 173:Core/Src/uart.c ****     HAL_NVIC_DisableIRQ(UART5_IRQn);
 174:Core/Src/uart.c ****   /* USER CODE BEGIN UART5_MspDeInit 1 */
 175:Core/Src/uart.c **** 
 176:Core/Src/uart.c ****   /* USER CODE END UART5_MspDeInit 1 */
 177:Core/Src/uart.c ****   }
 178:Core/Src/uart.c ****   else if(huart->Instance==USART1)
 179:Core/Src/uart.c ****   {
 180:Core/Src/uart.c ****   /* USER CODE BEGIN USART1_MspDeInit 0 */
 181:Core/Src/uart.c **** 
 182:Core/Src/uart.c ****   /* USER CODE END USART1_MspDeInit 0 */
 183:Core/Src/uart.c ****     /* Peripheral clock disable */
 184:Core/Src/uart.c ****     __HAL_RCC_USART1_CLK_DISABLE();
 185:Core/Src/uart.c **** 
 186:Core/Src/uart.c ****     /**USART1 GPIO Configuration
 187:Core/Src/uart.c ****     PA9     ------> USART1_TX
 188:Core/Src/uart.c ****     PA10     ------> USART1_RX
 189:Core/Src/uart.c ****     */
 190:Core/Src/uart.c ****     HAL_GPIO_DeInit(GPIOA, GPIO_PIN_9|GPIO_PIN_10);
 191:Core/Src/uart.c **** 
 192:Core/Src/uart.c ****   /* USER CODE BEGIN USART1_MspDeInit 1 */
 193:Core/Src/uart.c **** 
 194:Core/Src/uart.c ****   /* USER CODE END USART1_MspDeInit 1 */
 195:Core/Src/uart.c ****   }
 196:Core/Src/uart.c **** 
 197:Core/Src/uart.c **** }
 198:Core/Src/uart.c **** 
 199:Core/Src/uart.c **** 
 200:Core/Src/uart.c **** 
 201:Core/Src/uart.c **** 
ARM GAS  C:\Users\gvela\AppData\Local\Temp\ccmUKuKR.s 			page 5


 202:Core/Src/uart.c **** 
 203:Core/Src/uart.c **** /**
 204:Core/Src/uart.c ****   * @brief UART4 Initialization Function
 205:Core/Src/uart.c ****   * @param None
 206:Core/Src/uart.c ****   * @retval None
 207:Core/Src/uart.c ****   */
 208:Core/Src/uart.c **** static void MX_UART4_Init(void)
 209:Core/Src/uart.c **** {
 210:Core/Src/uart.c ****   huart4.Instance = UART4;
 211:Core/Src/uart.c ****   huart4.Init.BaudRate = 115200;
 212:Core/Src/uart.c ****   huart4.Init.WordLength = UART_WORDLENGTH_8B;
 213:Core/Src/uart.c ****   huart4.Init.StopBits = UART_STOPBITS_1;
 214:Core/Src/uart.c ****   huart4.Init.Parity = UART_PARITY_NONE;
 215:Core/Src/uart.c ****   huart4.Init.Mode = UART_MODE_TX_RX;
 216:Core/Src/uart.c ****   huart4.Init.HwFlowCtl = UART_HWCONTROL_NONE;
 217:Core/Src/uart.c ****   huart4.Init.OverSampling = UART_OVERSAMPLING_16;
 218:Core/Src/uart.c ****   if (HAL_UART_Init(&huart4) != HAL_OK)
 219:Core/Src/uart.c ****   {
 220:Core/Src/uart.c ****     Error_Handler();
 221:Core/Src/uart.c ****   }
 222:Core/Src/uart.c **** 
 223:Core/Src/uart.c **** }
 224:Core/Src/uart.c **** 
 225:Core/Src/uart.c **** /**
 226:Core/Src/uart.c ****   * @brief UART5 Initialization Function
 227:Core/Src/uart.c ****   * @param None
 228:Core/Src/uart.c ****   * @retval None
 229:Core/Src/uart.c ****   */
 230:Core/Src/uart.c **** static void MX_UART5_Init(void)
 231:Core/Src/uart.c **** {
 232:Core/Src/uart.c **** 
 233:Core/Src/uart.c ****   huart5.Instance = UART5;
 234:Core/Src/uart.c ****   huart5.Init.BaudRate = 115200;
 235:Core/Src/uart.c ****   huart5.Init.WordLength = UART_WORDLENGTH_8B;
 236:Core/Src/uart.c ****   huart5.Init.StopBits = UART_STOPBITS_1;
 237:Core/Src/uart.c ****   huart5.Init.Parity = UART_PARITY_NONE;
 238:Core/Src/uart.c ****   huart5.Init.Mode = UART_MODE_TX_RX;
 239:Core/Src/uart.c ****   huart5.Init.HwFlowCtl = UART_HWCONTROL_NONE;
 240:Core/Src/uart.c ****   huart5.Init.OverSampling = UART_OVERSAMPLING_16;
 241:Core/Src/uart.c ****   if (HAL_UART_Init(&huart5) != HAL_OK)
 242:Core/Src/uart.c ****   {
 243:Core/Src/uart.c ****     Error_Handler();
 244:Core/Src/uart.c ****   }
 245:Core/Src/uart.c **** 
 246:Core/Src/uart.c **** }
 247:Core/Src/uart.c **** 
 248:Core/Src/uart.c **** 
 249:Core/Src/uart.c **** 
 250:Core/Src/uart.c **** /**
 251:Core/Src/uart.c ****  * 
 252:Core/Src/uart.c ****   * @brief USART1 Initialization Function
 253:Core/Src/uart.c ****   * @param None
 254:Core/Src/uart.c ****   * @retval None
 255:Core/Src/uart.c ****   */
 256:Core/Src/uart.c **** static void MX_USART1_UART_Init(void)
 257:Core/Src/uart.c **** {
 258:Core/Src/uart.c **** 
ARM GAS  C:\Users\gvela\AppData\Local\Temp\ccmUKuKR.s 			page 6


 259:Core/Src/uart.c ****   /* USER CODE BEGIN USART1_Init 0 */
 260:Core/Src/uart.c **** 
 261:Core/Src/uart.c ****   /* USER CODE END USART1_Init 0 */
 262:Core/Src/uart.c **** 
 263:Core/Src/uart.c ****   /* USER CODE BEGIN USART1_Init 1 */
 264:Core/Src/uart.c **** 
 265:Core/Src/uart.c ****   /* USER CODE END USART1_Init 1 */
 266:Core/Src/uart.c ****   huart1.Instance = USART1;
 267:Core/Src/uart.c ****   huart1.Init.BaudRate = 115200;
 268:Core/Src/uart.c ****   huart1.Init.WordLength = UART_WORDLENGTH_8B;
 269:Core/Src/uart.c ****   huart1.Init.StopBits = UART_STOPBITS_1;
 270:Core/Src/uart.c ****   huart1.Init.Parity = UART_PARITY_NONE;
 271:Core/Src/uart.c ****   huart1.Init.Mode = UART_MODE_TX_RX;
 272:Core/Src/uart.c ****   huart1.Init.HwFlowCtl = UART_HWCONTROL_NONE;
 273:Core/Src/uart.c ****   huart1.Init.OverSampling = UART_OVERSAMPLING_16;
 274:Core/Src/uart.c ****   if (HAL_UART_Init(&huart1) != HAL_OK)
 275:Core/Src/uart.c ****   {
 276:Core/Src/uart.c ****     Error_Handler();
 277:Core/Src/uart.c ****   }
 278:Core/Src/uart.c ****   /* USER CODE BEGIN USART1_Init 2 */
 279:Core/Src/uart.c **** 
 280:Core/Src/uart.c ****   /* USER CODE END USART1_Init 2 */
 281:Core/Src/uart.c **** 
 282:Core/Src/uart.c **** }
 283:Core/Src/uart.c **** 
 284:Core/Src/uart.c **** 
 285:Core/Src/uart.c **** 
 286:Core/Src/uart.c **** 
 287:Core/Src/uart.c **** void uart_init(uart_t uart){    
 288:Core/Src/uart.c ****     switch (uart)
 289:Core/Src/uart.c ****     { 
 290:Core/Src/uart.c ****         case UART_A:
 291:Core/Src/uart.c ****                 MX_UART4_Init();
 292:Core/Src/uart.c ****             break;
 293:Core/Src/uart.c ****         case UART_B:
 294:Core/Src/uart.c ****                 MX_UART5_Init();
 295:Core/Src/uart.c ****             break;
 296:Core/Src/uart.c ****         case UART_C:
 297:Core/Src/uart.c ****                 MX_USART1_UART_Init();
 298:Core/Src/uart.c ****             break;
 299:Core/Src/uart.c ****         default:
 300:Core/Src/uart.c ****             break;
 301:Core/Src/uart.c ****     }
 302:Core/Src/uart.c **** 
 303:Core/Src/uart.c **** }
 304:Core/Src/uart.c **** 
 305:Core/Src/uart.c **** 
 306:Core/Src/uart.c **** 
 307:Core/Src/uart.c **** static UART_HandleTypeDef* __get_instance_uart(uart_t inst){
  29              		.loc 1 307 60 view -0
  30              		.cfi_startproc
  31              		@ args = 0, pretend = 0, frame = 0
  32              		@ frame_needed = 0, uses_anonymous_args = 0
  33              		@ link register save eliminated.
 308:Core/Src/uart.c **** 
 309:Core/Src/uart.c ****     UART_HandleTypeDef *uart=NULL;   
  34              		.loc 1 309 5 view .LVU1
ARM GAS  C:\Users\gvela\AppData\Local\Temp\ccmUKuKR.s 			page 7


 310:Core/Src/uart.c ****     switch (inst)   
  35              		.loc 1 310 5 view .LVU2
  36 0000 0128     		cmp	r0, #1
  37 0002 06D0     		beq	.L3
  38 0004 0228     		cmp	r0, #2
  39 0006 06D0     		beq	.L4
  40 0008 08B1     		cbz	r0, .L6
  41 000a 0020     		movs	r0, #0
  42              	.LVL1:
 311:Core/Src/uart.c ****     {
 312:Core/Src/uart.c ****      case UART_A:
 313:Core/Src/uart.c ****          uart= &huart4;
 314:Core/Src/uart.c ****          break;
 315:Core/Src/uart.c ****      case UART_B:
 316:Core/Src/uart.c ****            uart= &huart5;
 317:Core/Src/uart.c ****          break;
 318:Core/Src/uart.c ****      case UART_C:
 319:Core/Src/uart.c ****           uart= &huart1;
 320:Core/Src/uart.c ****          break; 
 321:Core/Src/uart.c ****     default:
 322:Core/Src/uart.c ****         break;  
 323:Core/Src/uart.c **** 
 324:Core/Src/uart.c ****     }
 325:Core/Src/uart.c ****  
 326:Core/Src/uart.c ****     return uart;
  43              		.loc 1 326 5 view .LVU3
 327:Core/Src/uart.c **** }
  44              		.loc 1 327 1 is_stmt 0 view .LVU4
  45 000c 7047     		bx	lr
  46              	.LVL2:
  47              	.L6:
 313:Core/Src/uart.c ****          break;
  48              		.loc 1 313 14 view .LVU5
  49 000e 0348     		ldr	r0, .L7
  50              	.LVL3:
 313:Core/Src/uart.c ****          break;
  51              		.loc 1 313 14 view .LVU6
  52 0010 7047     		bx	lr
  53              	.LVL4:
  54              	.L3:
 316:Core/Src/uart.c ****          break;
  55              		.loc 1 316 16 view .LVU7
  56 0012 0348     		ldr	r0, .L7+4
  57              	.LVL5:
 316:Core/Src/uart.c ****          break;
  58              		.loc 1 316 16 view .LVU8
  59 0014 7047     		bx	lr
  60              	.LVL6:
  61              	.L4:
 319:Core/Src/uart.c ****          break; 
  62              		.loc 1 319 15 view .LVU9
  63 0016 0348     		ldr	r0, .L7+8
  64              	.LVL7:
 319:Core/Src/uart.c ****          break; 
  65              		.loc 1 319 15 view .LVU10
  66 0018 7047     		bx	lr
  67              	.L8:
ARM GAS  C:\Users\gvela\AppData\Local\Temp\ccmUKuKR.s 			page 8


  68 001a 00BF     		.align	2
  69              	.L7:
  70 001c 00000000 		.word	.LANCHOR2
  71 0020 00000000 		.word	.LANCHOR1
  72 0024 00000000 		.word	.LANCHOR0
  73              		.cfi_endproc
  74              	.LFE136:
  76              		.section	.text.MX_UART4_Init,"ax",%progbits
  77              		.align	1
  78              		.syntax unified
  79              		.thumb
  80              		.thumb_func
  82              	MX_UART4_Init:
  83              	.LFB132:
 209:Core/Src/uart.c ****   huart4.Instance = UART4;
  84              		.loc 1 209 1 is_stmt 1 view -0
  85              		.cfi_startproc
  86              		@ args = 0, pretend = 0, frame = 0
  87              		@ frame_needed = 0, uses_anonymous_args = 0
  88 0000 08B5     		push	{r3, lr}
  89              	.LCFI0:
  90              		.cfi_def_cfa_offset 8
  91              		.cfi_offset 3, -8
  92              		.cfi_offset 14, -4
 210:Core/Src/uart.c ****   huart4.Init.BaudRate = 115200;
  93              		.loc 1 210 3 view .LVU12
 210:Core/Src/uart.c ****   huart4.Init.BaudRate = 115200;
  94              		.loc 1 210 19 is_stmt 0 view .LVU13
  95 0002 0A48     		ldr	r0, .L13
  96 0004 0A4B     		ldr	r3, .L13+4
  97 0006 0360     		str	r3, [r0]
 211:Core/Src/uart.c ****   huart4.Init.WordLength = UART_WORDLENGTH_8B;
  98              		.loc 1 211 3 is_stmt 1 view .LVU14
 211:Core/Src/uart.c ****   huart4.Init.WordLength = UART_WORDLENGTH_8B;
  99              		.loc 1 211 24 is_stmt 0 view .LVU15
 100 0008 4FF4E133 		mov	r3, #115200
 101 000c 4360     		str	r3, [r0, #4]
 212:Core/Src/uart.c ****   huart4.Init.StopBits = UART_STOPBITS_1;
 102              		.loc 1 212 3 is_stmt 1 view .LVU16
 212:Core/Src/uart.c ****   huart4.Init.StopBits = UART_STOPBITS_1;
 103              		.loc 1 212 26 is_stmt 0 view .LVU17
 104 000e 0023     		movs	r3, #0
 105 0010 8360     		str	r3, [r0, #8]
 213:Core/Src/uart.c ****   huart4.Init.Parity = UART_PARITY_NONE;
 106              		.loc 1 213 3 is_stmt 1 view .LVU18
 213:Core/Src/uart.c ****   huart4.Init.Parity = UART_PARITY_NONE;
 107              		.loc 1 213 24 is_stmt 0 view .LVU19
 108 0012 C360     		str	r3, [r0, #12]
 214:Core/Src/uart.c ****   huart4.Init.Mode = UART_MODE_TX_RX;
 109              		.loc 1 214 3 is_stmt 1 view .LVU20
 214:Core/Src/uart.c ****   huart4.Init.Mode = UART_MODE_TX_RX;
 110              		.loc 1 214 22 is_stmt 0 view .LVU21
 111 0014 0361     		str	r3, [r0, #16]
 215:Core/Src/uart.c ****   huart4.Init.HwFlowCtl = UART_HWCONTROL_NONE;
 112              		.loc 1 215 3 is_stmt 1 view .LVU22
 215:Core/Src/uart.c ****   huart4.Init.HwFlowCtl = UART_HWCONTROL_NONE;
 113              		.loc 1 215 20 is_stmt 0 view .LVU23
ARM GAS  C:\Users\gvela\AppData\Local\Temp\ccmUKuKR.s 			page 9


 114 0016 0C22     		movs	r2, #12
 115 0018 4261     		str	r2, [r0, #20]
 216:Core/Src/uart.c ****   huart4.Init.OverSampling = UART_OVERSAMPLING_16;
 116              		.loc 1 216 3 is_stmt 1 view .LVU24
 216:Core/Src/uart.c ****   huart4.Init.OverSampling = UART_OVERSAMPLING_16;
 117              		.loc 1 216 25 is_stmt 0 view .LVU25
 118 001a 8361     		str	r3, [r0, #24]
 217:Core/Src/uart.c ****   if (HAL_UART_Init(&huart4) != HAL_OK)
 119              		.loc 1 217 3 is_stmt 1 view .LVU26
 217:Core/Src/uart.c ****   if (HAL_UART_Init(&huart4) != HAL_OK)
 120              		.loc 1 217 28 is_stmt 0 view .LVU27
 121 001c C361     		str	r3, [r0, #28]
 218:Core/Src/uart.c ****   {
 122              		.loc 1 218 3 is_stmt 1 view .LVU28
 218:Core/Src/uart.c ****   {
 123              		.loc 1 218 7 is_stmt 0 view .LVU29
 124 001e FFF7FEFF 		bl	HAL_UART_Init
 125              	.LVL8:
 218:Core/Src/uart.c ****   {
 126              		.loc 1 218 6 view .LVU30
 127 0022 00B9     		cbnz	r0, .L12
 128              	.L9:
 223:Core/Src/uart.c **** 
 129              		.loc 1 223 1 view .LVU31
 130 0024 08BD     		pop	{r3, pc}
 131              	.L12:
 220:Core/Src/uart.c ****   }
 132              		.loc 1 220 5 is_stmt 1 view .LVU32
 133 0026 FFF7FEFF 		bl	Error_Handler
 134              	.LVL9:
 223:Core/Src/uart.c **** 
 135              		.loc 1 223 1 is_stmt 0 view .LVU33
 136 002a FBE7     		b	.L9
 137              	.L14:
 138              		.align	2
 139              	.L13:
 140 002c 00000000 		.word	.LANCHOR2
 141 0030 004C0040 		.word	1073761280
 142              		.cfi_endproc
 143              	.LFE132:
 145              		.section	.text.MX_UART5_Init,"ax",%progbits
 146              		.align	1
 147              		.syntax unified
 148              		.thumb
 149              		.thumb_func
 151              	MX_UART5_Init:
 152              	.LFB133:
 231:Core/Src/uart.c **** 
 153              		.loc 1 231 1 is_stmt 1 view -0
 154              		.cfi_startproc
 155              		@ args = 0, pretend = 0, frame = 0
 156              		@ frame_needed = 0, uses_anonymous_args = 0
 157 0000 08B5     		push	{r3, lr}
 158              	.LCFI1:
 159              		.cfi_def_cfa_offset 8
 160              		.cfi_offset 3, -8
 161              		.cfi_offset 14, -4
ARM GAS  C:\Users\gvela\AppData\Local\Temp\ccmUKuKR.s 			page 10


 233:Core/Src/uart.c ****   huart5.Init.BaudRate = 115200;
 162              		.loc 1 233 3 view .LVU35
 233:Core/Src/uart.c ****   huart5.Init.BaudRate = 115200;
 163              		.loc 1 233 19 is_stmt 0 view .LVU36
 164 0002 0A48     		ldr	r0, .L19
 165 0004 0A4B     		ldr	r3, .L19+4
 166 0006 0360     		str	r3, [r0]
 234:Core/Src/uart.c ****   huart5.Init.WordLength = UART_WORDLENGTH_8B;
 167              		.loc 1 234 3 is_stmt 1 view .LVU37
 234:Core/Src/uart.c ****   huart5.Init.WordLength = UART_WORDLENGTH_8B;
 168              		.loc 1 234 24 is_stmt 0 view .LVU38
 169 0008 4FF4E133 		mov	r3, #115200
 170 000c 4360     		str	r3, [r0, #4]
 235:Core/Src/uart.c ****   huart5.Init.StopBits = UART_STOPBITS_1;
 171              		.loc 1 235 3 is_stmt 1 view .LVU39
 235:Core/Src/uart.c ****   huart5.Init.StopBits = UART_STOPBITS_1;
 172              		.loc 1 235 26 is_stmt 0 view .LVU40
 173 000e 0023     		movs	r3, #0
 174 0010 8360     		str	r3, [r0, #8]
 236:Core/Src/uart.c ****   huart5.Init.Parity = UART_PARITY_NONE;
 175              		.loc 1 236 3 is_stmt 1 view .LVU41
 236:Core/Src/uart.c ****   huart5.Init.Parity = UART_PARITY_NONE;
 176              		.loc 1 236 24 is_stmt 0 view .LVU42
 177 0012 C360     		str	r3, [r0, #12]
 237:Core/Src/uart.c ****   huart5.Init.Mode = UART_MODE_TX_RX;
 178              		.loc 1 237 3 is_stmt 1 view .LVU43
 237:Core/Src/uart.c ****   huart5.Init.Mode = UART_MODE_TX_RX;
 179              		.loc 1 237 22 is_stmt 0 view .LVU44
 180 0014 0361     		str	r3, [r0, #16]
 238:Core/Src/uart.c ****   huart5.Init.HwFlowCtl = UART_HWCONTROL_NONE;
 181              		.loc 1 238 3 is_stmt 1 view .LVU45
 238:Core/Src/uart.c ****   huart5.Init.HwFlowCtl = UART_HWCONTROL_NONE;
 182              		.loc 1 238 20 is_stmt 0 view .LVU46
 183 0016 0C22     		movs	r2, #12
 184 0018 4261     		str	r2, [r0, #20]
 239:Core/Src/uart.c ****   huart5.Init.OverSampling = UART_OVERSAMPLING_16;
 185              		.loc 1 239 3 is_stmt 1 view .LVU47
 239:Core/Src/uart.c ****   huart5.Init.OverSampling = UART_OVERSAMPLING_16;
 186              		.loc 1 239 25 is_stmt 0 view .LVU48
 187 001a 8361     		str	r3, [r0, #24]
 240:Core/Src/uart.c ****   if (HAL_UART_Init(&huart5) != HAL_OK)
 188              		.loc 1 240 3 is_stmt 1 view .LVU49
 240:Core/Src/uart.c ****   if (HAL_UART_Init(&huart5) != HAL_OK)
 189              		.loc 1 240 28 is_stmt 0 view .LVU50
 190 001c C361     		str	r3, [r0, #28]
 241:Core/Src/uart.c ****   {
 191              		.loc 1 241 3 is_stmt 1 view .LVU51
 241:Core/Src/uart.c ****   {
 192              		.loc 1 241 7 is_stmt 0 view .LVU52
 193 001e FFF7FEFF 		bl	HAL_UART_Init
 194              	.LVL10:
 241:Core/Src/uart.c ****   {
 195              		.loc 1 241 6 view .LVU53
 196 0022 00B9     		cbnz	r0, .L18
 197              	.L15:
 246:Core/Src/uart.c **** 
 198              		.loc 1 246 1 view .LVU54
ARM GAS  C:\Users\gvela\AppData\Local\Temp\ccmUKuKR.s 			page 11


 199 0024 08BD     		pop	{r3, pc}
 200              	.L18:
 243:Core/Src/uart.c ****   }
 201              		.loc 1 243 5 is_stmt 1 view .LVU55
 202 0026 FFF7FEFF 		bl	Error_Handler
 203              	.LVL11:
 246:Core/Src/uart.c **** 
 204              		.loc 1 246 1 is_stmt 0 view .LVU56
 205 002a FBE7     		b	.L15
 206              	.L20:
 207              		.align	2
 208              	.L19:
 209 002c 00000000 		.word	.LANCHOR1
 210 0030 00500040 		.word	1073762304
 211              		.cfi_endproc
 212              	.LFE133:
 214              		.section	.text.MX_USART1_UART_Init,"ax",%progbits
 215              		.align	1
 216              		.syntax unified
 217              		.thumb
 218              		.thumb_func
 220              	MX_USART1_UART_Init:
 221              	.LFB134:
 257:Core/Src/uart.c **** 
 222              		.loc 1 257 1 is_stmt 1 view -0
 223              		.cfi_startproc
 224              		@ args = 0, pretend = 0, frame = 0
 225              		@ frame_needed = 0, uses_anonymous_args = 0
 226 0000 08B5     		push	{r3, lr}
 227              	.LCFI2:
 228              		.cfi_def_cfa_offset 8
 229              		.cfi_offset 3, -8
 230              		.cfi_offset 14, -4
 266:Core/Src/uart.c ****   huart1.Init.BaudRate = 115200;
 231              		.loc 1 266 3 view .LVU58
 266:Core/Src/uart.c ****   huart1.Init.BaudRate = 115200;
 232              		.loc 1 266 19 is_stmt 0 view .LVU59
 233 0002 0A48     		ldr	r0, .L25
 234 0004 0A4B     		ldr	r3, .L25+4
 235 0006 0360     		str	r3, [r0]
 267:Core/Src/uart.c ****   huart1.Init.WordLength = UART_WORDLENGTH_8B;
 236              		.loc 1 267 3 is_stmt 1 view .LVU60
 267:Core/Src/uart.c ****   huart1.Init.WordLength = UART_WORDLENGTH_8B;
 237              		.loc 1 267 24 is_stmt 0 view .LVU61
 238 0008 4FF4E133 		mov	r3, #115200
 239 000c 4360     		str	r3, [r0, #4]
 268:Core/Src/uart.c ****   huart1.Init.StopBits = UART_STOPBITS_1;
 240              		.loc 1 268 3 is_stmt 1 view .LVU62
 268:Core/Src/uart.c ****   huart1.Init.StopBits = UART_STOPBITS_1;
 241              		.loc 1 268 26 is_stmt 0 view .LVU63
 242 000e 0023     		movs	r3, #0
 243 0010 8360     		str	r3, [r0, #8]
 269:Core/Src/uart.c ****   huart1.Init.Parity = UART_PARITY_NONE;
 244              		.loc 1 269 3 is_stmt 1 view .LVU64
 269:Core/Src/uart.c ****   huart1.Init.Parity = UART_PARITY_NONE;
 245              		.loc 1 269 24 is_stmt 0 view .LVU65
 246 0012 C360     		str	r3, [r0, #12]
ARM GAS  C:\Users\gvela\AppData\Local\Temp\ccmUKuKR.s 			page 12


 270:Core/Src/uart.c ****   huart1.Init.Mode = UART_MODE_TX_RX;
 247              		.loc 1 270 3 is_stmt 1 view .LVU66
 270:Core/Src/uart.c ****   huart1.Init.Mode = UART_MODE_TX_RX;
 248              		.loc 1 270 22 is_stmt 0 view .LVU67
 249 0014 0361     		str	r3, [r0, #16]
 271:Core/Src/uart.c ****   huart1.Init.HwFlowCtl = UART_HWCONTROL_NONE;
 250              		.loc 1 271 3 is_stmt 1 view .LVU68
 271:Core/Src/uart.c ****   huart1.Init.HwFlowCtl = UART_HWCONTROL_NONE;
 251              		.loc 1 271 20 is_stmt 0 view .LVU69
 252 0016 0C22     		movs	r2, #12
 253 0018 4261     		str	r2, [r0, #20]
 272:Core/Src/uart.c ****   huart1.Init.OverSampling = UART_OVERSAMPLING_16;
 254              		.loc 1 272 3 is_stmt 1 view .LVU70
 272:Core/Src/uart.c ****   huart1.Init.OverSampling = UART_OVERSAMPLING_16;
 255              		.loc 1 272 25 is_stmt 0 view .LVU71
 256 001a 8361     		str	r3, [r0, #24]
 273:Core/Src/uart.c ****   if (HAL_UART_Init(&huart1) != HAL_OK)
 257              		.loc 1 273 3 is_stmt 1 view .LVU72
 273:Core/Src/uart.c ****   if (HAL_UART_Init(&huart1) != HAL_OK)
 258              		.loc 1 273 28 is_stmt 0 view .LVU73
 259 001c C361     		str	r3, [r0, #28]
 274:Core/Src/uart.c ****   {
 260              		.loc 1 274 3 is_stmt 1 view .LVU74
 274:Core/Src/uart.c ****   {
 261              		.loc 1 274 7 is_stmt 0 view .LVU75
 262 001e FFF7FEFF 		bl	HAL_UART_Init
 263              	.LVL12:
 274:Core/Src/uart.c ****   {
 264              		.loc 1 274 6 view .LVU76
 265 0022 00B9     		cbnz	r0, .L24
 266              	.L21:
 282:Core/Src/uart.c **** 
 267              		.loc 1 282 1 view .LVU77
 268 0024 08BD     		pop	{r3, pc}
 269              	.L24:
 276:Core/Src/uart.c ****   }
 270              		.loc 1 276 5 is_stmt 1 view .LVU78
 271 0026 FFF7FEFF 		bl	Error_Handler
 272              	.LVL13:
 282:Core/Src/uart.c **** 
 273              		.loc 1 282 1 is_stmt 0 view .LVU79
 274 002a FBE7     		b	.L21
 275              	.L26:
 276              		.align	2
 277              	.L25:
 278 002c 00000000 		.word	.LANCHOR0
 279 0030 00100140 		.word	1073811456
 280              		.cfi_endproc
 281              	.LFE134:
 283              		.section	.text.HAL_UART_MspInit,"ax",%progbits
 284              		.align	1
 285              		.global	HAL_UART_MspInit
 286              		.syntax unified
 287              		.thumb
 288              		.thumb_func
 290              	HAL_UART_MspInit:
 291              	.LVL14:
ARM GAS  C:\Users\gvela\AppData\Local\Temp\ccmUKuKR.s 			page 13


 292              	.LFB130:
  38:Core/Src/uart.c ****   GPIO_InitTypeDef GPIO_InitStruct = {0};
 293              		.loc 1 38 1 is_stmt 1 view -0
 294              		.cfi_startproc
 295              		@ args = 0, pretend = 0, frame = 48
 296              		@ frame_needed = 0, uses_anonymous_args = 0
  38:Core/Src/uart.c ****   GPIO_InitTypeDef GPIO_InitStruct = {0};
 297              		.loc 1 38 1 is_stmt 0 view .LVU81
 298 0000 F0B5     		push	{r4, r5, r6, r7, lr}
 299              	.LCFI3:
 300              		.cfi_def_cfa_offset 20
 301              		.cfi_offset 4, -20
 302              		.cfi_offset 5, -16
 303              		.cfi_offset 6, -12
 304              		.cfi_offset 7, -8
 305              		.cfi_offset 14, -4
 306 0002 8DB0     		sub	sp, sp, #52
 307              	.LCFI4:
 308              		.cfi_def_cfa_offset 72
  39:Core/Src/uart.c ****   if(huart->Instance==UART4)
 309              		.loc 1 39 3 is_stmt 1 view .LVU82
  39:Core/Src/uart.c ****   if(huart->Instance==UART4)
 310              		.loc 1 39 20 is_stmt 0 view .LVU83
 311 0004 0023     		movs	r3, #0
 312 0006 0793     		str	r3, [sp, #28]
 313 0008 0893     		str	r3, [sp, #32]
 314 000a 0993     		str	r3, [sp, #36]
 315 000c 0A93     		str	r3, [sp, #40]
 316 000e 0B93     		str	r3, [sp, #44]
  40:Core/Src/uart.c ****   {
 317              		.loc 1 40 3 is_stmt 1 view .LVU84
  40:Core/Src/uart.c ****   {
 318              		.loc 1 40 11 is_stmt 0 view .LVU85
 319 0010 0368     		ldr	r3, [r0]
  40:Core/Src/uart.c ****   {
 320              		.loc 1 40 5 view .LVU86
 321 0012 484A     		ldr	r2, .L35
 322 0014 9342     		cmp	r3, r2
 323 0016 07D0     		beq	.L32
  66:Core/Src/uart.c ****   {
 324              		.loc 1 66 8 is_stmt 1 view .LVU87
  66:Core/Src/uart.c ****   {
 325              		.loc 1 66 10 is_stmt 0 view .LVU88
 326 0018 474A     		ldr	r2, .L35+4
 327 001a 9342     		cmp	r3, r2
 328 001c 26D0     		beq	.L33
 101:Core/Src/uart.c ****   {
 329              		.loc 1 101 8 is_stmt 1 view .LVU89
 101:Core/Src/uart.c ****   {
 330              		.loc 1 101 10 is_stmt 0 view .LVU90
 331 001e 474A     		ldr	r2, .L35+8
 332 0020 9342     		cmp	r3, r2
 333 0022 63D0     		beq	.L34
 334              	.LVL15:
 335              	.L27:
 126:Core/Src/uart.c **** 
 336              		.loc 1 126 1 view .LVU91
ARM GAS  C:\Users\gvela\AppData\Local\Temp\ccmUKuKR.s 			page 14


 337 0024 0DB0     		add	sp, sp, #52
 338              	.LCFI5:
 339              		.cfi_remember_state
 340              		.cfi_def_cfa_offset 20
 341              		@ sp needed
 342 0026 F0BD     		pop	{r4, r5, r6, r7, pc}
 343              	.LVL16:
 344              	.L32:
 345              	.LCFI6:
 346              		.cfi_restore_state
  46:Core/Src/uart.c **** 
 347              		.loc 1 46 5 is_stmt 1 view .LVU92
 348              	.LBB2:
  46:Core/Src/uart.c **** 
 349              		.loc 1 46 5 view .LVU93
 350 0028 0021     		movs	r1, #0
 351 002a 0091     		str	r1, [sp]
  46:Core/Src/uart.c **** 
 352              		.loc 1 46 5 view .LVU94
 353 002c 444B     		ldr	r3, .L35+12
 354 002e 1A6C     		ldr	r2, [r3, #64]
 355 0030 42F40022 		orr	r2, r2, #524288
 356 0034 1A64     		str	r2, [r3, #64]
  46:Core/Src/uart.c **** 
 357              		.loc 1 46 5 view .LVU95
 358 0036 1A6C     		ldr	r2, [r3, #64]
 359 0038 02F40022 		and	r2, r2, #524288
 360 003c 0092     		str	r2, [sp]
  46:Core/Src/uart.c **** 
 361              		.loc 1 46 5 view .LVU96
 362 003e 009A     		ldr	r2, [sp]
 363              	.LBE2:
  46:Core/Src/uart.c **** 
 364              		.loc 1 46 5 view .LVU97
  48:Core/Src/uart.c ****     /**UART4 GPIO Configuration
 365              		.loc 1 48 5 view .LVU98
 366              	.LBB3:
  48:Core/Src/uart.c ****     /**UART4 GPIO Configuration
 367              		.loc 1 48 5 view .LVU99
 368 0040 0191     		str	r1, [sp, #4]
  48:Core/Src/uart.c ****     /**UART4 GPIO Configuration
 369              		.loc 1 48 5 view .LVU100
 370 0042 1A6B     		ldr	r2, [r3, #48]
 371 0044 42F00102 		orr	r2, r2, #1
 372 0048 1A63     		str	r2, [r3, #48]
  48:Core/Src/uart.c ****     /**UART4 GPIO Configuration
 373              		.loc 1 48 5 view .LVU101
 374 004a 1B6B     		ldr	r3, [r3, #48]
 375 004c 03F00103 		and	r3, r3, #1
 376 0050 0193     		str	r3, [sp, #4]
  48:Core/Src/uart.c ****     /**UART4 GPIO Configuration
 377              		.loc 1 48 5 view .LVU102
 378 0052 019B     		ldr	r3, [sp, #4]
 379              	.LBE3:
  48:Core/Src/uart.c ****     /**UART4 GPIO Configuration
 380              		.loc 1 48 5 view .LVU103
  53:Core/Src/uart.c ****     GPIO_InitStruct.Mode = GPIO_MODE_AF_PP;
ARM GAS  C:\Users\gvela\AppData\Local\Temp\ccmUKuKR.s 			page 15


 381              		.loc 1 53 5 view .LVU104
  53:Core/Src/uart.c ****     GPIO_InitStruct.Mode = GPIO_MODE_AF_PP;
 382              		.loc 1 53 25 is_stmt 0 view .LVU105
 383 0054 0323     		movs	r3, #3
 384 0056 0793     		str	r3, [sp, #28]
  54:Core/Src/uart.c ****     GPIO_InitStruct.Pull = GPIO_NOPULL;
 385              		.loc 1 54 5 is_stmt 1 view .LVU106
  54:Core/Src/uart.c ****     GPIO_InitStruct.Pull = GPIO_NOPULL;
 386              		.loc 1 54 26 is_stmt 0 view .LVU107
 387 0058 0222     		movs	r2, #2
 388 005a 0892     		str	r2, [sp, #32]
  55:Core/Src/uart.c ****     GPIO_InitStruct.Speed = GPIO_SPEED_FREQ_VERY_HIGH;
 389              		.loc 1 55 5 is_stmt 1 view .LVU108
  56:Core/Src/uart.c ****     GPIO_InitStruct.Alternate = GPIO_AF8_UART4;
 390              		.loc 1 56 5 view .LVU109
  56:Core/Src/uart.c ****     GPIO_InitStruct.Alternate = GPIO_AF8_UART4;
 391              		.loc 1 56 27 is_stmt 0 view .LVU110
 392 005c 0A93     		str	r3, [sp, #40]
  57:Core/Src/uart.c ****     HAL_GPIO_Init(GPIOA, &GPIO_InitStruct);
 393              		.loc 1 57 5 is_stmt 1 view .LVU111
  57:Core/Src/uart.c ****     HAL_GPIO_Init(GPIOA, &GPIO_InitStruct);
 394              		.loc 1 57 31 is_stmt 0 view .LVU112
 395 005e 0823     		movs	r3, #8
 396 0060 0B93     		str	r3, [sp, #44]
  58:Core/Src/uart.c **** 
 397              		.loc 1 58 5 is_stmt 1 view .LVU113
 398 0062 07A9     		add	r1, sp, #28
 399 0064 3748     		ldr	r0, .L35+16
 400              	.LVL17:
  58:Core/Src/uart.c **** 
 401              		.loc 1 58 5 is_stmt 0 view .LVU114
 402 0066 FFF7FEFF 		bl	HAL_GPIO_Init
 403              	.LVL18:
 404 006a DBE7     		b	.L27
 405              	.LVL19:
 406              	.L33:
  72:Core/Src/uart.c **** 
 407              		.loc 1 72 5 is_stmt 1 view .LVU115
 408              	.LBB4:
  72:Core/Src/uart.c **** 
 409              		.loc 1 72 5 view .LVU116
 410 006c 0024     		movs	r4, #0
 411 006e 0294     		str	r4, [sp, #8]
  72:Core/Src/uart.c **** 
 412              		.loc 1 72 5 view .LVU117
 413 0070 334B     		ldr	r3, .L35+12
 414 0072 1A6C     		ldr	r2, [r3, #64]
 415 0074 42F48012 		orr	r2, r2, #1048576
 416 0078 1A64     		str	r2, [r3, #64]
  72:Core/Src/uart.c **** 
 417              		.loc 1 72 5 view .LVU118
 418 007a 1A6C     		ldr	r2, [r3, #64]
 419 007c 02F48012 		and	r2, r2, #1048576
 420 0080 0292     		str	r2, [sp, #8]
  72:Core/Src/uart.c **** 
 421              		.loc 1 72 5 view .LVU119
 422 0082 029A     		ldr	r2, [sp, #8]
ARM GAS  C:\Users\gvela\AppData\Local\Temp\ccmUKuKR.s 			page 16


 423              	.LBE4:
  72:Core/Src/uart.c **** 
 424              		.loc 1 72 5 view .LVU120
  74:Core/Src/uart.c ****     __HAL_RCC_GPIOD_CLK_ENABLE();
 425              		.loc 1 74 5 view .LVU121
 426              	.LBB5:
  74:Core/Src/uart.c ****     __HAL_RCC_GPIOD_CLK_ENABLE();
 427              		.loc 1 74 5 view .LVU122
 428 0084 0394     		str	r4, [sp, #12]
  74:Core/Src/uart.c ****     __HAL_RCC_GPIOD_CLK_ENABLE();
 429              		.loc 1 74 5 view .LVU123
 430 0086 1A6B     		ldr	r2, [r3, #48]
 431 0088 42F00402 		orr	r2, r2, #4
 432 008c 1A63     		str	r2, [r3, #48]
  74:Core/Src/uart.c ****     __HAL_RCC_GPIOD_CLK_ENABLE();
 433              		.loc 1 74 5 view .LVU124
 434 008e 1A6B     		ldr	r2, [r3, #48]
 435 0090 02F00402 		and	r2, r2, #4
 436 0094 0392     		str	r2, [sp, #12]
  74:Core/Src/uart.c ****     __HAL_RCC_GPIOD_CLK_ENABLE();
 437              		.loc 1 74 5 view .LVU125
 438 0096 039A     		ldr	r2, [sp, #12]
 439              	.LBE5:
  74:Core/Src/uart.c ****     __HAL_RCC_GPIOD_CLK_ENABLE();
 440              		.loc 1 74 5 view .LVU126
  75:Core/Src/uart.c ****     /**UART5 GPIO Configuration
 441              		.loc 1 75 5 view .LVU127
 442              	.LBB6:
  75:Core/Src/uart.c ****     /**UART5 GPIO Configuration
 443              		.loc 1 75 5 view .LVU128
 444 0098 0494     		str	r4, [sp, #16]
  75:Core/Src/uart.c ****     /**UART5 GPIO Configuration
 445              		.loc 1 75 5 view .LVU129
 446 009a 1A6B     		ldr	r2, [r3, #48]
 447 009c 42F00802 		orr	r2, r2, #8
 448 00a0 1A63     		str	r2, [r3, #48]
  75:Core/Src/uart.c ****     /**UART5 GPIO Configuration
 449              		.loc 1 75 5 view .LVU130
 450 00a2 1B6B     		ldr	r3, [r3, #48]
 451 00a4 03F00803 		and	r3, r3, #8
 452 00a8 0493     		str	r3, [sp, #16]
  75:Core/Src/uart.c ****     /**UART5 GPIO Configuration
 453              		.loc 1 75 5 view .LVU131
 454 00aa 049B     		ldr	r3, [sp, #16]
 455              	.LBE6:
  75:Core/Src/uart.c ****     /**UART5 GPIO Configuration
 456              		.loc 1 75 5 view .LVU132
  80:Core/Src/uart.c ****     GPIO_InitStruct.Mode = GPIO_MODE_AF_PP;
 457              		.loc 1 80 5 view .LVU133
  80:Core/Src/uart.c ****     GPIO_InitStruct.Mode = GPIO_MODE_AF_PP;
 458              		.loc 1 80 25 is_stmt 0 view .LVU134
 459 00ac 4FF48053 		mov	r3, #4096
 460 00b0 0793     		str	r3, [sp, #28]
  81:Core/Src/uart.c ****     GPIO_InitStruct.Pull = GPIO_NOPULL;
 461              		.loc 1 81 5 is_stmt 1 view .LVU135
  81:Core/Src/uart.c ****     GPIO_InitStruct.Pull = GPIO_NOPULL;
 462              		.loc 1 81 26 is_stmt 0 view .LVU136
ARM GAS  C:\Users\gvela\AppData\Local\Temp\ccmUKuKR.s 			page 17


 463 00b2 0227     		movs	r7, #2
 464 00b4 0897     		str	r7, [sp, #32]
  82:Core/Src/uart.c ****     GPIO_InitStruct.Speed = GPIO_SPEED_FREQ_VERY_HIGH;
 465              		.loc 1 82 5 is_stmt 1 view .LVU137
  83:Core/Src/uart.c ****     GPIO_InitStruct.Alternate = GPIO_AF8_UART5;
 466              		.loc 1 83 5 view .LVU138
  83:Core/Src/uart.c ****     GPIO_InitStruct.Alternate = GPIO_AF8_UART5;
 467              		.loc 1 83 27 is_stmt 0 view .LVU139
 468 00b6 0326     		movs	r6, #3
 469 00b8 0A96     		str	r6, [sp, #40]
  84:Core/Src/uart.c ****     HAL_GPIO_Init(GPIOC, &GPIO_InitStruct);
 470              		.loc 1 84 5 is_stmt 1 view .LVU140
  84:Core/Src/uart.c ****     HAL_GPIO_Init(GPIOC, &GPIO_InitStruct);
 471              		.loc 1 84 31 is_stmt 0 view .LVU141
 472 00ba 0825     		movs	r5, #8
 473 00bc 0B95     		str	r5, [sp, #44]
  85:Core/Src/uart.c **** 
 474              		.loc 1 85 5 is_stmt 1 view .LVU142
 475 00be 07A9     		add	r1, sp, #28
 476 00c0 2148     		ldr	r0, .L35+20
 477              	.LVL20:
  85:Core/Src/uart.c **** 
 478              		.loc 1 85 5 is_stmt 0 view .LVU143
 479 00c2 FFF7FEFF 		bl	HAL_GPIO_Init
 480              	.LVL21:
  87:Core/Src/uart.c ****     GPIO_InitStruct.Mode = GPIO_MODE_AF_PP;
 481              		.loc 1 87 5 is_stmt 1 view .LVU144
  87:Core/Src/uart.c ****     GPIO_InitStruct.Mode = GPIO_MODE_AF_PP;
 482              		.loc 1 87 25 is_stmt 0 view .LVU145
 483 00c6 0423     		movs	r3, #4
 484 00c8 0793     		str	r3, [sp, #28]
  88:Core/Src/uart.c ****     GPIO_InitStruct.Pull = GPIO_NOPULL;
 485              		.loc 1 88 5 is_stmt 1 view .LVU146
  88:Core/Src/uart.c ****     GPIO_InitStruct.Pull = GPIO_NOPULL;
 486              		.loc 1 88 26 is_stmt 0 view .LVU147
 487 00ca 0897     		str	r7, [sp, #32]
  89:Core/Src/uart.c ****     GPIO_InitStruct.Speed = GPIO_SPEED_FREQ_VERY_HIGH;
 488              		.loc 1 89 5 is_stmt 1 view .LVU148
  89:Core/Src/uart.c ****     GPIO_InitStruct.Speed = GPIO_SPEED_FREQ_VERY_HIGH;
 489              		.loc 1 89 26 is_stmt 0 view .LVU149
 490 00cc 0994     		str	r4, [sp, #36]
  90:Core/Src/uart.c ****     GPIO_InitStruct.Alternate = GPIO_AF8_UART5;
 491              		.loc 1 90 5 is_stmt 1 view .LVU150
  90:Core/Src/uart.c ****     GPIO_InitStruct.Alternate = GPIO_AF8_UART5;
 492              		.loc 1 90 27 is_stmt 0 view .LVU151
 493 00ce 0A96     		str	r6, [sp, #40]
  91:Core/Src/uart.c ****     HAL_GPIO_Init(GPIOD, &GPIO_InitStruct);
 494              		.loc 1 91 5 is_stmt 1 view .LVU152
  91:Core/Src/uart.c ****     HAL_GPIO_Init(GPIOD, &GPIO_InitStruct);
 495              		.loc 1 91 31 is_stmt 0 view .LVU153
 496 00d0 0B95     		str	r5, [sp, #44]
  92:Core/Src/uart.c **** 
 497              		.loc 1 92 5 is_stmt 1 view .LVU154
 498 00d2 07A9     		add	r1, sp, #28
 499 00d4 1D48     		ldr	r0, .L35+24
 500 00d6 FFF7FEFF 		bl	HAL_GPIO_Init
 501              	.LVL22:
ARM GAS  C:\Users\gvela\AppData\Local\Temp\ccmUKuKR.s 			page 18


  95:Core/Src/uart.c ****     HAL_NVIC_EnableIRQ(UART5_IRQn);
 502              		.loc 1 95 5 view .LVU155
 503 00da 2246     		mov	r2, r4
 504 00dc 2146     		mov	r1, r4
 505 00de 3520     		movs	r0, #53
 506 00e0 FFF7FEFF 		bl	HAL_NVIC_SetPriority
 507              	.LVL23:
  96:Core/Src/uart.c ****   /* USER CODE BEGIN UART5_MspInit 1 */
 508              		.loc 1 96 5 view .LVU156
 509 00e4 3520     		movs	r0, #53
 510 00e6 FFF7FEFF 		bl	HAL_NVIC_EnableIRQ
 511              	.LVL24:
 512 00ea 9BE7     		b	.L27
 513              	.LVL25:
 514              	.L34:
 107:Core/Src/uart.c **** 
 515              		.loc 1 107 5 view .LVU157
 516              	.LBB7:
 107:Core/Src/uart.c **** 
 517              		.loc 1 107 5 view .LVU158
 518 00ec 0021     		movs	r1, #0
 519 00ee 0591     		str	r1, [sp, #20]
 107:Core/Src/uart.c **** 
 520              		.loc 1 107 5 view .LVU159
 521 00f0 134B     		ldr	r3, .L35+12
 522 00f2 5A6C     		ldr	r2, [r3, #68]
 523 00f4 42F01002 		orr	r2, r2, #16
 524 00f8 5A64     		str	r2, [r3, #68]
 107:Core/Src/uart.c **** 
 525              		.loc 1 107 5 view .LVU160
 526 00fa 5A6C     		ldr	r2, [r3, #68]
 527 00fc 02F01002 		and	r2, r2, #16
 528 0100 0592     		str	r2, [sp, #20]
 107:Core/Src/uart.c **** 
 529              		.loc 1 107 5 view .LVU161
 530 0102 059A     		ldr	r2, [sp, #20]
 531              	.LBE7:
 107:Core/Src/uart.c **** 
 532              		.loc 1 107 5 view .LVU162
 109:Core/Src/uart.c ****     /**USART1 GPIO Configuration
 533              		.loc 1 109 5 view .LVU163
 534              	.LBB8:
 109:Core/Src/uart.c ****     /**USART1 GPIO Configuration
 535              		.loc 1 109 5 view .LVU164
 536 0104 0691     		str	r1, [sp, #24]
 109:Core/Src/uart.c ****     /**USART1 GPIO Configuration
 537              		.loc 1 109 5 view .LVU165
 538 0106 1A6B     		ldr	r2, [r3, #48]
 539 0108 42F00102 		orr	r2, r2, #1
 540 010c 1A63     		str	r2, [r3, #48]
 109:Core/Src/uart.c ****     /**USART1 GPIO Configuration
 541              		.loc 1 109 5 view .LVU166
 542 010e 1B6B     		ldr	r3, [r3, #48]
 543 0110 03F00103 		and	r3, r3, #1
 544 0114 0693     		str	r3, [sp, #24]
 109:Core/Src/uart.c ****     /**USART1 GPIO Configuration
 545              		.loc 1 109 5 view .LVU167
ARM GAS  C:\Users\gvela\AppData\Local\Temp\ccmUKuKR.s 			page 19


 546 0116 069B     		ldr	r3, [sp, #24]
 547              	.LBE8:
 109:Core/Src/uart.c ****     /**USART1 GPIO Configuration
 548              		.loc 1 109 5 view .LVU168
 114:Core/Src/uart.c ****     GPIO_InitStruct.Mode = GPIO_MODE_AF_PP;
 549              		.loc 1 114 5 view .LVU169
 114:Core/Src/uart.c ****     GPIO_InitStruct.Mode = GPIO_MODE_AF_PP;
 550              		.loc 1 114 25 is_stmt 0 view .LVU170
 551 0118 4FF4C063 		mov	r3, #1536
 552 011c 0793     		str	r3, [sp, #28]
 115:Core/Src/uart.c ****     GPIO_InitStruct.Pull = GPIO_NOPULL;
 553              		.loc 1 115 5 is_stmt 1 view .LVU171
 115:Core/Src/uart.c ****     GPIO_InitStruct.Pull = GPIO_NOPULL;
 554              		.loc 1 115 26 is_stmt 0 view .LVU172
 555 011e 0223     		movs	r3, #2
 556 0120 0893     		str	r3, [sp, #32]
 116:Core/Src/uart.c ****     GPIO_InitStruct.Speed = GPIO_SPEED_FREQ_VERY_HIGH;
 557              		.loc 1 116 5 is_stmt 1 view .LVU173
 117:Core/Src/uart.c ****     GPIO_InitStruct.Alternate = GPIO_AF7_USART1;
 558              		.loc 1 117 5 view .LVU174
 117:Core/Src/uart.c ****     GPIO_InitStruct.Alternate = GPIO_AF7_USART1;
 559              		.loc 1 117 27 is_stmt 0 view .LVU175
 560 0122 0323     		movs	r3, #3
 561 0124 0A93     		str	r3, [sp, #40]
 118:Core/Src/uart.c ****     HAL_GPIO_Init(GPIOA, &GPIO_InitStruct);
 562              		.loc 1 118 5 is_stmt 1 view .LVU176
 118:Core/Src/uart.c ****     HAL_GPIO_Init(GPIOA, &GPIO_InitStruct);
 563              		.loc 1 118 31 is_stmt 0 view .LVU177
 564 0126 0723     		movs	r3, #7
 565 0128 0B93     		str	r3, [sp, #44]
 119:Core/Src/uart.c **** 
 566              		.loc 1 119 5 is_stmt 1 view .LVU178
 567 012a 07A9     		add	r1, sp, #28
 568 012c 0548     		ldr	r0, .L35+16
 569              	.LVL26:
 119:Core/Src/uart.c **** 
 570              		.loc 1 119 5 is_stmt 0 view .LVU179
 571 012e FFF7FEFF 		bl	HAL_GPIO_Init
 572              	.LVL27:
 126:Core/Src/uart.c **** 
 573              		.loc 1 126 1 view .LVU180
 574 0132 77E7     		b	.L27
 575              	.L36:
 576              		.align	2
 577              	.L35:
 578 0134 004C0040 		.word	1073761280
 579 0138 00500040 		.word	1073762304
 580 013c 00100140 		.word	1073811456
 581 0140 00380240 		.word	1073887232
 582 0144 00000240 		.word	1073872896
 583 0148 00080240 		.word	1073874944
 584 014c 000C0240 		.word	1073875968
 585              		.cfi_endproc
 586              	.LFE130:
 588              		.section	.text.HAL_UART_MspDeInit,"ax",%progbits
 589              		.align	1
 590              		.global	HAL_UART_MspDeInit
ARM GAS  C:\Users\gvela\AppData\Local\Temp\ccmUKuKR.s 			page 20


 591              		.syntax unified
 592              		.thumb
 593              		.thumb_func
 595              	HAL_UART_MspDeInit:
 596              	.LVL28:
 597              	.LFB131:
 137:Core/Src/uart.c ****   if(huart->Instance==UART4)
 598              		.loc 1 137 1 is_stmt 1 view -0
 599              		.cfi_startproc
 600              		@ args = 0, pretend = 0, frame = 0
 601              		@ frame_needed = 0, uses_anonymous_args = 0
 137:Core/Src/uart.c ****   if(huart->Instance==UART4)
 602              		.loc 1 137 1 is_stmt 0 view .LVU182
 603 0000 08B5     		push	{r3, lr}
 604              	.LCFI7:
 605              		.cfi_def_cfa_offset 8
 606              		.cfi_offset 3, -8
 607              		.cfi_offset 14, -4
 138:Core/Src/uart.c ****   {
 608              		.loc 1 138 3 is_stmt 1 view .LVU183
 138:Core/Src/uart.c ****   {
 609              		.loc 1 138 11 is_stmt 0 view .LVU184
 610 0002 0368     		ldr	r3, [r0]
 138:Core/Src/uart.c ****   {
 611              		.loc 1 138 5 view .LVU185
 612 0004 194A     		ldr	r2, .L45
 613 0006 9342     		cmp	r3, r2
 614 0008 06D0     		beq	.L42
 156:Core/Src/uart.c ****   {
 615              		.loc 1 156 8 is_stmt 1 view .LVU186
 156:Core/Src/uart.c ****   {
 616              		.loc 1 156 10 is_stmt 0 view .LVU187
 617 000a 194A     		ldr	r2, .L45+4
 618 000c 9342     		cmp	r3, r2
 619 000e 0ED0     		beq	.L43
 178:Core/Src/uart.c ****   {
 620              		.loc 1 178 8 is_stmt 1 view .LVU188
 178:Core/Src/uart.c ****   {
 621              		.loc 1 178 10 is_stmt 0 view .LVU189
 622 0010 184A     		ldr	r2, .L45+8
 623 0012 9342     		cmp	r3, r2
 624 0014 1ED0     		beq	.L44
 625              	.LVL29:
 626              	.L37:
 197:Core/Src/uart.c **** 
 627              		.loc 1 197 1 view .LVU190
 628 0016 08BD     		pop	{r3, pc}
 629              	.LVL30:
 630              	.L42:
 144:Core/Src/uart.c **** 
 631              		.loc 1 144 5 is_stmt 1 view .LVU191
 632 0018 02F5F632 		add	r2, r2, #125952
 633 001c 136C     		ldr	r3, [r2, #64]
 634 001e 23F40023 		bic	r3, r3, #524288
 635 0022 1364     		str	r3, [r2, #64]
 150:Core/Src/uart.c **** 
 636              		.loc 1 150 5 view .LVU192
ARM GAS  C:\Users\gvela\AppData\Local\Temp\ccmUKuKR.s 			page 21


 637 0024 0321     		movs	r1, #3
 638 0026 1448     		ldr	r0, .L45+12
 639              	.LVL31:
 150:Core/Src/uart.c **** 
 640              		.loc 1 150 5 is_stmt 0 view .LVU193
 641 0028 FFF7FEFF 		bl	HAL_GPIO_DeInit
 642              	.LVL32:
 643 002c F3E7     		b	.L37
 644              	.LVL33:
 645              	.L43:
 162:Core/Src/uart.c **** 
 646              		.loc 1 162 5 is_stmt 1 view .LVU194
 647 002e 02F5F432 		add	r2, r2, #124928
 648 0032 136C     		ldr	r3, [r2, #64]
 649 0034 23F48013 		bic	r3, r3, #1048576
 650 0038 1364     		str	r3, [r2, #64]
 168:Core/Src/uart.c **** 
 651              		.loc 1 168 5 view .LVU195
 652 003a 4FF48051 		mov	r1, #4096
 653 003e 0F48     		ldr	r0, .L45+16
 654              	.LVL34:
 168:Core/Src/uart.c **** 
 655              		.loc 1 168 5 is_stmt 0 view .LVU196
 656 0040 FFF7FEFF 		bl	HAL_GPIO_DeInit
 657              	.LVL35:
 170:Core/Src/uart.c **** 
 658              		.loc 1 170 5 is_stmt 1 view .LVU197
 659 0044 0421     		movs	r1, #4
 660 0046 0E48     		ldr	r0, .L45+20
 661 0048 FFF7FEFF 		bl	HAL_GPIO_DeInit
 662              	.LVL36:
 173:Core/Src/uart.c ****   /* USER CODE BEGIN UART5_MspDeInit 1 */
 663              		.loc 1 173 5 view .LVU198
 664 004c 3520     		movs	r0, #53
 665 004e FFF7FEFF 		bl	HAL_NVIC_DisableIRQ
 666              	.LVL37:
 667 0052 E0E7     		b	.L37
 668              	.LVL38:
 669              	.L44:
 184:Core/Src/uart.c **** 
 670              		.loc 1 184 5 view .LVU199
 671 0054 02F59432 		add	r2, r2, #75776
 672 0058 536C     		ldr	r3, [r2, #68]
 673 005a 23F01003 		bic	r3, r3, #16
 674 005e 5364     		str	r3, [r2, #68]
 190:Core/Src/uart.c **** 
 675              		.loc 1 190 5 view .LVU200
 676 0060 4FF4C061 		mov	r1, #1536
 677 0064 0448     		ldr	r0, .L45+12
 678              	.LVL39:
 190:Core/Src/uart.c **** 
 679              		.loc 1 190 5 is_stmt 0 view .LVU201
 680 0066 FFF7FEFF 		bl	HAL_GPIO_DeInit
 681              	.LVL40:
 197:Core/Src/uart.c **** 
 682              		.loc 1 197 1 view .LVU202
 683 006a D4E7     		b	.L37
ARM GAS  C:\Users\gvela\AppData\Local\Temp\ccmUKuKR.s 			page 22


 684              	.L46:
 685              		.align	2
 686              	.L45:
 687 006c 004C0040 		.word	1073761280
 688 0070 00500040 		.word	1073762304
 689 0074 00100140 		.word	1073811456
 690 0078 00000240 		.word	1073872896
 691 007c 00080240 		.word	1073874944
 692 0080 000C0240 		.word	1073875968
 693              		.cfi_endproc
 694              	.LFE131:
 696              		.section	.text.uart_init,"ax",%progbits
 697              		.align	1
 698              		.global	uart_init
 699              		.syntax unified
 700              		.thumb
 701              		.thumb_func
 703              	uart_init:
 704              	.LVL41:
 705              	.LFB135:
 287:Core/Src/uart.c ****     switch (uart)
 706              		.loc 1 287 28 is_stmt 1 view -0
 707              		.cfi_startproc
 708              		@ args = 0, pretend = 0, frame = 0
 709              		@ frame_needed = 0, uses_anonymous_args = 0
 287:Core/Src/uart.c ****     switch (uart)
 710              		.loc 1 287 28 is_stmt 0 view .LVU204
 711 0000 08B5     		push	{r3, lr}
 712              	.LCFI8:
 713              		.cfi_def_cfa_offset 8
 714              		.cfi_offset 3, -8
 715              		.cfi_offset 14, -4
 288:Core/Src/uart.c ****     { 
 716              		.loc 1 288 5 is_stmt 1 view .LVU205
 717 0002 0128     		cmp	r0, #1
 718 0004 06D0     		beq	.L48
 719 0006 0228     		cmp	r0, #2
 720 0008 07D0     		beq	.L49
 721 000a 00B1     		cbz	r0, .L52
 722              	.LVL42:
 723              	.L47:
 303:Core/Src/uart.c **** 
 724              		.loc 1 303 1 is_stmt 0 view .LVU206
 725 000c 08BD     		pop	{r3, pc}
 726              	.LVL43:
 727              	.L52:
 291:Core/Src/uart.c ****             break;
 728              		.loc 1 291 17 is_stmt 1 view .LVU207
 729 000e FFF7FEFF 		bl	MX_UART4_Init
 730              	.LVL44:
 292:Core/Src/uart.c ****         case UART_B:
 731              		.loc 1 292 13 view .LVU208
 732 0012 FBE7     		b	.L47
 733              	.LVL45:
 734              	.L48:
 294:Core/Src/uart.c ****             break;
 735              		.loc 1 294 17 view .LVU209
ARM GAS  C:\Users\gvela\AppData\Local\Temp\ccmUKuKR.s 			page 23


 736 0014 FFF7FEFF 		bl	MX_UART5_Init
 737              	.LVL46:
 295:Core/Src/uart.c ****         case UART_C:
 738              		.loc 1 295 13 view .LVU210
 739 0018 F8E7     		b	.L47
 740              	.LVL47:
 741              	.L49:
 297:Core/Src/uart.c ****             break;
 742              		.loc 1 297 17 view .LVU211
 743 001a FFF7FEFF 		bl	MX_USART1_UART_Init
 744              	.LVL48:
 298:Core/Src/uart.c ****         default:
 745              		.loc 1 298 13 view .LVU212
 303:Core/Src/uart.c **** 
 746              		.loc 1 303 1 is_stmt 0 view .LVU213
 747 001e F5E7     		b	.L47
 748              		.cfi_endproc
 749              	.LFE135:
 751              		.section	.text.uart_write,"ax",%progbits
 752              		.align	1
 753              		.global	uart_write
 754              		.syntax unified
 755              		.thumb
 756              		.thumb_func
 758              	uart_write:
 759              	.LVL49:
 760              	.LFB137:
 328:Core/Src/uart.c **** 
 329:Core/Src/uart.c **** 
 330:Core/Src/uart.c **** 
 331:Core/Src/uart.c **** 
 332:Core/Src/uart.c **** 
 333:Core/Src/uart.c **** void uart_write(uart_t uart,uint8_t* buffer,uint16_t len, uint16_t timeout){
 761              		.loc 1 333 76 is_stmt 1 view -0
 762              		.cfi_startproc
 763              		@ args = 0, pretend = 0, frame = 0
 764              		@ frame_needed = 0, uses_anonymous_args = 0
 765              		.loc 1 333 76 is_stmt 0 view .LVU215
 766 0000 70B5     		push	{r4, r5, r6, lr}
 767              	.LCFI9:
 768              		.cfi_def_cfa_offset 16
 769              		.cfi_offset 4, -16
 770              		.cfi_offset 5, -12
 771              		.cfi_offset 6, -8
 772              		.cfi_offset 14, -4
 773 0002 0C46     		mov	r4, r1
 774 0004 1546     		mov	r5, r2
 775 0006 1E46     		mov	r6, r3
 334:Core/Src/uart.c ****    UART_HandleTypeDef* huart = __get_instance_uart(uart);
 776              		.loc 1 334 4 is_stmt 1 view .LVU216
 777              		.loc 1 334 32 is_stmt 0 view .LVU217
 778 0008 FFF7FEFF 		bl	__get_instance_uart
 779              	.LVL50:
 335:Core/Src/uart.c ****     HAL_UART_Transmit(huart,buffer,len,timeout);
 780              		.loc 1 335 5 is_stmt 1 view .LVU218
 781 000c 3346     		mov	r3, r6
 782 000e 2A46     		mov	r2, r5
ARM GAS  C:\Users\gvela\AppData\Local\Temp\ccmUKuKR.s 			page 24


 783 0010 2146     		mov	r1, r4
 784 0012 FFF7FEFF 		bl	HAL_UART_Transmit
 785              	.LVL51:
 336:Core/Src/uart.c **** 
 337:Core/Src/uart.c **** }
 786              		.loc 1 337 1 is_stmt 0 view .LVU219
 787 0016 70BD     		pop	{r4, r5, r6, pc}
 788              		.loc 1 337 1 view .LVU220
 789              		.cfi_endproc
 790              	.LFE137:
 792              		.section	.text.uart_read,"ax",%progbits
 793              		.align	1
 794              		.global	uart_read
 795              		.syntax unified
 796              		.thumb
 797              		.thumb_func
 799              	uart_read:
 800              	.LVL52:
 801              	.LFB138:
 338:Core/Src/uart.c **** 
 339:Core/Src/uart.c **** void uart_read(uart_t uart,uint8_t* buffer,uint16_t len, uint16_t timeout){
 802              		.loc 1 339 75 is_stmt 1 view -0
 803              		.cfi_startproc
 804              		@ args = 0, pretend = 0, frame = 0
 805              		@ frame_needed = 0, uses_anonymous_args = 0
 806              		.loc 1 339 75 is_stmt 0 view .LVU222
 807 0000 70B5     		push	{r4, r5, r6, lr}
 808              	.LCFI10:
 809              		.cfi_def_cfa_offset 16
 810              		.cfi_offset 4, -16
 811              		.cfi_offset 5, -12
 812              		.cfi_offset 6, -8
 813              		.cfi_offset 14, -4
 814 0002 0C46     		mov	r4, r1
 815 0004 1546     		mov	r5, r2
 816 0006 1E46     		mov	r6, r3
 340:Core/Src/uart.c ****     UART_HandleTypeDef* huart = __get_instance_uart(uart);
 817              		.loc 1 340 5 is_stmt 1 view .LVU223
 818              		.loc 1 340 33 is_stmt 0 view .LVU224
 819 0008 FFF7FEFF 		bl	__get_instance_uart
 820              	.LVL53:
 341:Core/Src/uart.c ****  HAL_UART_Receive(huart,buffer,len,timeout);
 821              		.loc 1 341 2 is_stmt 1 view .LVU225
 822 000c 3346     		mov	r3, r6
 823 000e 2A46     		mov	r2, r5
 824 0010 2146     		mov	r1, r4
 825 0012 FFF7FEFF 		bl	HAL_UART_Receive
 826              	.LVL54:
 342:Core/Src/uart.c **** 
 343:Core/Src/uart.c **** }...
 827              		.loc 1 343 1 is_stmt 0 view .LVU226
 828 0016 70BD     		pop	{r4, r5, r6, pc}
 829              		.loc 1 343 1 view .LVU227
 830              		.cfi_endproc
 831              	.LFE138:
 833              		.global	huart1
 834              		.global	huart5
ARM GAS  C:\Users\gvela\AppData\Local\Temp\ccmUKuKR.s 			page 25


 835              		.global	huart4
 836              		.section	.bss.huart1,"aw",%nobits
 837              		.align	2
 838              		.set	.LANCHOR0,. + 0
 841              	huart1:
 842 0000 00000000 		.space	68
 842      00000000 
 842      00000000 
 842      00000000 
 842      00000000 
 843              		.section	.bss.huart4,"aw",%nobits
 844              		.align	2
 845              		.set	.LANCHOR2,. + 0
 848              	huart4:
 849 0000 00000000 		.space	68
 849      00000000 
 849      00000000 
 849      00000000 
 849      00000000 
 850              		.section	.bss.huart5,"aw",%nobits
 851              		.align	2
 852              		.set	.LANCHOR1,. + 0
 855              	huart5:
 856 0000 00000000 		.space	68
 856      00000000 
 856      00000000 
 856      00000000 
 856      00000000 
 857              		.text
 858              	.Letext0:
 859              		.file 2 "c:\\program files (x86)\\gnu arm embedded toolchain\\10 2021.10\\arm-none-eabi\\include\\
 860              		.file 3 "c:\\program files (x86)\\gnu arm embedded toolchain\\10 2021.10\\arm-none-eabi\\include\\
 861              		.file 4 "Drivers/CMSIS/Device/ST/STM32F4xx/Include/stm32f407xx.h"
 862              		.file 5 "Drivers/STM32F4xx_HAL_Driver/Inc/stm32f4xx_hal_def.h"
 863              		.file 6 "Drivers/STM32F4xx_HAL_Driver/Inc/stm32f4xx_hal_gpio.h"
 864              		.file 7 "Drivers/STM32F4xx_HAL_Driver/Inc/stm32f4xx_hal_dma.h"
 865              		.file 8 "Drivers/STM32F4xx_HAL_Driver/Inc/stm32f4xx_hal_uart.h"
 866              		.file 9 "Core/Inc/core.h"
 867              		.file 10 "Core/Inc/main.h"
 868              		.file 11 "Drivers/STM32F4xx_HAL_Driver/Inc/stm32f4xx_hal_cortex.h"
ARM GAS  C:\Users\gvela\AppData\Local\Temp\ccmUKuKR.s 			page 26

